target datalayout = "e-m:e-p270:32:32-p271:32:32-p272:64:64-i64:64-i128:128-f80:128-n8:16:32:64-S128"
target triple = "x86_64-pc-linux-gnu"

@_ZN7TypeInt3INTE = external global ptr, align 8
@_ZN7TypePtr7NOTNULLE = external global ptr, align 8

; Function Attrs: mustprogress nounwind uwtable
define hidden noundef ptr @_ZN11OptoRuntime21updateBytesCRC32_TypeEv() #1 align 2 {
  %1 = alloca i32, align 4
  %2 = alloca i32, align 4
  %3 = alloca ptr, align 8
  %4 = alloca i32, align 4
  %5 = alloca ptr, align 8
  %6 = alloca ptr, align 8
  store i32 3, ptr %1, align 4
  %7 = load i32, ptr %1, align 4
  store i32 %7, ptr %2, align 4
  %8 = load i32, ptr %2, align 4
  %9 = call noundef ptr @_ZN9TypeTuple6fieldsEj(i32 noundef %8)
  store ptr %9, ptr %3, align 8
  store i32 5, ptr %4, align 4
  %10 = load ptr, ptr @_ZN7TypeInt3INTE, align 8
  %11 = load ptr, ptr %3, align 8
  %12 = load i32, ptr %4, align 4
  %13 = add nsw i32 %12, 1
  store i32 %13, ptr %4, align 4
  %14 = sext i32 %12 to i64
  %15 = getelementptr inbounds ptr, ptr %11, i64 %14
  store ptr %10, ptr %15, align 8
  %16 = load ptr, ptr @_ZN7TypePtr7NOTNULLE, align 8
  %17 = load ptr, ptr %3, align 8
  %18 = load i32, ptr %4, align 4
  %19 = add nsw i32 %18, 1
  store i32 %19, ptr %4, align 4
  %20 = sext i32 %18 to i64
  %21 = getelementptr inbounds ptr, ptr %17, i64 %20
  store ptr %16, ptr %21, align 8
  %22 = load ptr, ptr @_ZN7TypeInt3INTE, align 8
  %23 = load ptr, ptr %3, align 8
  %24 = load i32, ptr %4, align 4
  %25 = add nsw i32 %24, 1
  store i32 %25, ptr %4, align 4
  %26 = sext i32 %24 to i64
  %27 = getelementptr inbounds ptr, ptr %23, i64 %26
  store ptr %22, ptr %27, align 8
  %28 = load i32, ptr %2, align 4
  %29 = add nsw i32 5, %28
  %30 = load ptr, ptr %3, align 8
  %31 = call noundef ptr @_ZN9TypeTuple4makeEjPPK4Type(i32 noundef %29, ptr noundef %30)
  store ptr %31, ptr %5, align 8
  %32 = call noundef ptr @_ZN9TypeTuple6fieldsEj(i32 noundef 1)
  store ptr %32, ptr %3, align 8
  %33 = load ptr, ptr @_ZN7TypeInt3INTE, align 8
  %34 = load ptr, ptr %3, align 8
  %35 = getelementptr inbounds ptr, ptr %34, i64 5
  store ptr %33, ptr %35, align 8
  %36 = load ptr, ptr %3, align 8
  %37 = call noundef ptr @_ZN9TypeTuple4makeEjPPK4Type(i32 noundef 6, ptr noundef %36)
  store ptr %37, ptr %6, align 8
  %38 = load ptr, ptr %5, align 8
  %39 = load ptr, ptr %6, align 8
  %40 = call noundef ptr @_ZN8TypeFunc4makeEPK9TypeTupleS2_(ptr noundef %38, ptr noundef %39)
  ret ptr %40
}